target datalayout = "e-m:e-p270:32:32-p271:32:32-p272:64:64-i64:64-i128:128-f80:128-n8:16:32:64-S128"
target triple = "x86_64-pc-linux-gnu"

%"class.draco::AdaptiveRAnsBitDecoder" = type { %"struct.draco::AnsDecoder", double }
%"struct.draco::AnsDecoder" = type { ptr, i32, i32 }
%"class.draco::DecoderBuffer" = type <{ ptr, i64, i64, %"class.draco::DecoderBuffer::BitDecoder", i8, i8, i16, [4 x i8] }>
%"class.draco::DecoderBuffer::BitDecoder" = type { ptr, ptr, i64 }

; Function Attrs: mustprogress nounwind uwtable
define internal noundef i32 @_ZN5dracoL12mem_get_le24EPKv(ptr noundef %0) #5 {
  %2 = alloca ptr, align 8
  %3 = alloca i32, align 4
  %4 = alloca ptr, align 8
  store ptr %0, ptr %2, align 8
  %5 = load ptr, ptr %2, align 8
  store ptr %5, ptr %4, align 8
  %6 = load ptr, ptr %4, align 8
  %7 = getelementptr inbounds i8, ptr %6, i64 2
  %8 = load i8, ptr %7, align 1
  %9 = zext i8 %8 to i32
  %10 = shl i32 %9, 16
  store i32 %10, ptr %3, align 4
  %11 = load ptr, ptr %4, align 8
  %12 = getelementptr inbounds i8, ptr %11, i64 1
  %13 = load i8, ptr %12, align 1
  %14 = zext i8 %13 to i32
  %15 = shl i32 %14, 8
  %16 = load i32, ptr %3, align 4
  %17 = or i32 %16, %15
  store i32 %17, ptr %3, align 4
  %18 = load ptr, ptr %4, align 8
  %19 = getelementptr inbounds i8, ptr %18, i64 0
  %20 = load i8, ptr %19, align 1
  %21 = zext i8 %20 to i32
  %22 = load i32, ptr %3, align 4
  %23 = or i32 %22, %21
  store i32 %23, ptr %3, align 4
  %24 = load i32, ptr %3, align 4
  ret i32 %24
}

; Function Attrs: mustprogress nounwind uwtable
define internal noundef i32 @_ZN5dracoL12mem_get_le16EPKv(ptr noundef %0) #5 {
  %2 = alloca ptr, align 8
  %3 = alloca i32, align 4
  %4 = alloca ptr, align 8
  store ptr %0, ptr %2, align 8
  %5 = load ptr, ptr %2, align 8
  store ptr %5, ptr %4, align 8
  %6 = load ptr, ptr %4, align 8
  %7 = getelementptr inbounds i8, ptr %6, i64 1
  %8 = load i8, ptr %7, align 1
  %9 = zext i8 %8 to i32
  %10 = shl i32 %9, 8
  store i32 %10, ptr %3, align 4
  %11 = load ptr, ptr %4, align 8
  %12 = getelementptr inbounds i8, ptr %11, i64 0
  %13 = load i8, ptr %12, align 1
  %14 = zext i8 %13 to i32
  %15 = load i32, ptr %3, align 4
  %16 = or i32 %15, %14
  store i32 %16, ptr %3, align 4
  %17 = load i32, ptr %3, align 4
  ret i32 %17
}

; Function Attrs: mustprogress nounwind uwtable
define linkonce_odr noundef zeroext i1 @_ZN5draco13DecoderBuffer4PeekIjEEbPT_(ptr noundef nonnull align 8 dereferenceable(52) %0, ptr noundef %1) #5 comdat align 2 {
  %3 = alloca i1, align 1
  %4 = alloca ptr, align 8
  %5 = alloca ptr, align 8
  %6 = alloca i64, align 8
  store ptr %0, ptr %4, align 8
  store ptr %1, ptr %5, align 8
  %7 = load ptr, ptr %4, align 8
  store i64 4, ptr %6, align 8
  %8 = getelementptr inbounds %"class.draco::DecoderBuffer", ptr %7, i32 0, i32 1
  %9 = load i64, ptr %8, align 8
  %10 = getelementptr inbounds %"class.draco::DecoderBuffer", ptr %7, i32 0, i32 2
  %11 = load i64, ptr %10, align 8
  %12 = add i64 %11, 4
  %13 = icmp slt i64 %9, %12
  br i1 %13, label %14, label %15

14:                                               ; preds = %2
  store i1 false, ptr %3, align 1
  br label %22

15:                                               ; preds = %2
  %16 = load ptr, ptr %5, align 8
  %17 = getelementptr inbounds %"class.draco::DecoderBuffer", ptr %7, i32 0, i32 0
  %18 = load ptr, ptr %17, align 8
  %19 = getelementptr inbounds %"class.draco::DecoderBuffer", ptr %7, i32 0, i32 2
  %20 = load i64, ptr %19, align 8
  %21 = getelementptr inbounds i8, ptr %18, i64 %20
  call void @llvm.memcpy.p0.p0.i64(ptr align 4 %16, ptr align 1 %21, i64 4, i1 false)
  store i1 true, ptr %3, align 1
  br label %22

22:                                               ; preds = %15, %14
  %23 = load i1, ptr %3, align 1
  ret i1 %23
}

; Function Attrs: mustprogress nounwind uwtable
define internal noundef i32 @_ZN5dracoL12ans_read_endEPNS_10AnsDecoderE(ptr noundef %0) #5 {
  %2 = alloca ptr, align 8
  store ptr %0, ptr %2, align 8
  %3 = load ptr, ptr %2, align 8
  %4 = getelementptr inbounds %"struct.draco::AnsDecoder", ptr %3, i32 0, i32 2
  %5 = load i32, ptr %4, align 4
  %6 = icmp eq i32 %5, 4096
  %7 = zext i1 %6 to i32
  ret i32 %7
}

; Function Attrs: mustprogress nounwind uwtable
define linkonce_odr void @_ZN5draco13DecoderBuffer7AdvanceEl(ptr noundef nonnull align 8 dereferenceable(52) %0, i64 noundef %1) #5 comdat align 2 {
  %3 = alloca ptr, align 8
  %4 = alloca i64, align 8
  store ptr %0, ptr %3, align 8
  store i64 %1, ptr %4, align 8
  %5 = load ptr, ptr %3, align 8
  %6 = load i64, ptr %4, align 8
  %7 = getelementptr inbounds %"class.draco::DecoderBuffer", ptr %5, i32 0, i32 2
  %8 = load i64, ptr %7, align 8
  %9 = add nsw i64 %8, %6
  store i64 %9, ptr %7, align 8
  ret void
}

; Function Attrs: mustprogress uwtable
define internal noundef i32 @_ZN5dracoL13ans_read_initEPNS_10AnsDecoderEPKhi(ptr noundef %0, ptr noundef %1, i32 noundef %2) #4 {
  %4 = alloca i32, align 4
  %5 = alloca ptr, align 8
  %6 = alloca ptr, align 8
  %7 = alloca i32, align 4
  %8 = alloca i32, align 4
  store ptr %0, ptr %5, align 8
  store ptr %1, ptr %6, align 8
  store i32 %2, ptr %7, align 4
  %9 = load i32, ptr %7, align 4
  %10 = icmp slt i32 %9, 1
  br i1 %10, label %11, label %12

11:                                               ; preds = %3
  store i32 1, ptr %4, align 4
  br label %97

12:                                               ; preds = %3
  %13 = load ptr, ptr %6, align 8
  %14 = load ptr, ptr %5, align 8
  %15 = getelementptr inbounds %"struct.draco::AnsDecoder", ptr %14, i32 0, i32 0
  store ptr %13, ptr %15, align 8
  %16 = load ptr, ptr %6, align 8
  %17 = load i32, ptr %7, align 4
  %18 = sub nsw i32 %17, 1
  %19 = sext i32 %18 to i64
  %20 = getelementptr inbounds i8, ptr %16, i64 %19
  %21 = load i8, ptr %20, align 1
  %22 = zext i8 %21 to i32
  %23 = ashr i32 %22, 6
  store i32 %23, ptr %8, align 4
  %24 = load i32, ptr %8, align 4
  %25 = icmp eq i32 %24, 0
  br i1 %25, label %26, label %41

26:                                               ; preds = %12
  %27 = load i32, ptr %7, align 4
  %28 = sub nsw i32 %27, 1
  %29 = load ptr, ptr %5, align 8
  %30 = getelementptr inbounds %"struct.draco::AnsDecoder", ptr %29, i32 0, i32 1
  store i32 %28, ptr %30, align 8
  %31 = load ptr, ptr %6, align 8
  %32 = load i32, ptr %7, align 4
  %33 = sub nsw i32 %32, 1
  %34 = sext i32 %33 to i64
  %35 = getelementptr inbounds i8, ptr %31, i64 %34
  %36 = load i8, ptr %35, align 1
  %37 = zext i8 %36 to i32
  %38 = and i32 %37, 63
  %39 = load ptr, ptr %5, align 8
  %40 = getelementptr inbounds %"struct.draco::AnsDecoder", ptr %39, i32 0, i32 2
  store i32 %38, ptr %40, align 4
  br label %86

41:                                               ; preds = %12
  %42 = load i32, ptr %8, align 4
  %43 = icmp eq i32 %42, 1
  br i1 %43, label %44, label %62

44:                                               ; preds = %41
  %45 = load i32, ptr %7, align 4
  %46 = icmp slt i32 %45, 2
  br i1 %46, label %47, label %48

47:                                               ; preds = %44
  store i32 1, ptr %4, align 4
  br label %97

48:                                               ; preds = %44
  %49 = load i32, ptr %7, align 4
  %50 = sub nsw i32 %49, 2
  %51 = load ptr, ptr %5, align 8
  %52 = getelementptr inbounds %"struct.draco::AnsDecoder", ptr %51, i32 0, i32 1
  store i32 %50, ptr %52, align 8
  %53 = load ptr, ptr %6, align 8
  %54 = load i32, ptr %7, align 4
  %55 = sext i32 %54 to i64
  %56 = getelementptr inbounds i8, ptr %53, i64 %55
  %57 = getelementptr inbounds i8, ptr %56, i64 -2
  %58 = call noundef i32 @_ZN5dracoL12mem_get_le16EPKv(ptr noundef %57)
  %59 = and i32 %58, 16383
  %60 = load ptr, ptr %5, align 8
  %61 = getelementptr inbounds %"struct.draco::AnsDecoder", ptr %60, i32 0, i32 2
  store i32 %59, ptr %61, align 4
  br label %85

62:                                               ; preds = %41
  %63 = load i32, ptr %8, align 4
  %64 = icmp eq i32 %63, 2
  br i1 %64, label %65, label %83

65:                                               ; preds = %62
  %66 = load i32, ptr %7, align 4
  %67 = icmp slt i32 %66, 3
  br i1 %67, label %68, label %69

68:                                               ; preds = %65
  store i32 1, ptr %4, align 4
  br label %97

69:                                               ; preds = %65
  %70 = load i32, ptr %7, align 4
  %71 = sub nsw i32 %70, 3
  %72 = load ptr, ptr %5, align 8
  %73 = getelementptr inbounds %"struct.draco::AnsDecoder", ptr %72, i32 0, i32 1
  store i32 %71, ptr %73, align 8
  %74 = load ptr, ptr %6, align 8
  %75 = load i32, ptr %7, align 4
  %76 = sext i32 %75 to i64
  %77 = getelementptr inbounds i8, ptr %74, i64 %76
  %78 = getelementptr inbounds i8, ptr %77, i64 -3
  %79 = call noundef i32 @_ZN5dracoL12mem_get_le24EPKv(ptr noundef %78)
  %80 = and i32 %79, 4194303
  %81 = load ptr, ptr %5, align 8
  %82 = getelementptr inbounds %"struct.draco::AnsDecoder", ptr %81, i32 0, i32 2
  store i32 %80, ptr %82, align 4
  br label %84

83:                                               ; preds = %62
  store i32 1, ptr %4, align 4
  br label %97

84:                                               ; preds = %69
  br label %85

85:                                               ; preds = %84, %48
  br label %86

86:                                               ; preds = %85, %26
  %87 = load ptr, ptr %5, align 8
  %88 = getelementptr inbounds %"struct.draco::AnsDecoder", ptr %87, i32 0, i32 2
  %89 = load i32, ptr %88, align 4
  %90 = add i32 %89, 4096
  store i32 %90, ptr %88, align 4
  %91 = load ptr, ptr %5, align 8
  %92 = getelementptr inbounds %"struct.draco::AnsDecoder", ptr %91, i32 0, i32 2
  %93 = load i32, ptr %92, align 4
  %94 = icmp uge i32 %93, 1048576
  br i1 %94, label %95, label %96

95:                                               ; preds = %86
  store i32 1, ptr %4, align 4
  br label %97

96:                                               ; preds = %86
  store i32 0, ptr %4, align 4
  br label %97

97:                                               ; preds = %96, %95, %83, %68, %47, %11
  %98 = load i32, ptr %4, align 4
  ret i32 %98
}

; Function Attrs: mustprogress nounwind uwtable
define linkonce_odr noundef ptr @_ZNK5draco13DecoderBuffer9data_headEv(ptr noundef nonnull align 8 dereferenceable(52) %0) #5 comdat align 2 {
  %2 = alloca ptr, align 8
  store ptr %0, ptr %2, align 8
  %3 = load ptr, ptr %2, align 8
  %4 = getelementptr inbounds %"class.draco::DecoderBuffer", ptr %3, i32 0, i32 0
  %5 = load ptr, ptr %4, align 8
  %6 = getelementptr inbounds %"class.draco::DecoderBuffer", ptr %3, i32 0, i32 2
  %7 = load i64, ptr %6, align 8
  %8 = getelementptr inbounds i8, ptr %5, i64 %7
  ret ptr %8
}

; Function Attrs: mustprogress nounwind uwtable
define linkonce_odr noundef i64 @_ZNK5draco13DecoderBuffer14remaining_sizeEv(ptr noundef nonnull align 8 dereferenceable(52) %0) #5 comdat align 2 {
  %2 = alloca ptr, align 8
  store ptr %0, ptr %2, align 8
  %3 = load ptr, ptr %2, align 8
  %4 = getelementptr inbounds %"class.draco::DecoderBuffer", ptr %3, i32 0, i32 1
  %5 = load i64, ptr %4, align 8
  %6 = getelementptr inbounds %"class.draco::DecoderBuffer", ptr %3, i32 0, i32 2
  %7 = load i64, ptr %6, align 8
  %8 = sub nsw i64 %5, %7
  ret i64 %8
}

; Function Attrs: mustprogress uwtable
define linkonce_odr noundef zeroext i1 @_ZN5draco13DecoderBuffer6DecodeIjEEbPT_(ptr noundef nonnull align 8 dereferenceable(52) %0, ptr noundef %1) #4 comdat align 2 {
  %3 = alloca i1, align 1
  %4 = alloca ptr, align 8
  %5 = alloca ptr, align 8
  store ptr %0, ptr %4, align 8
  store ptr %1, ptr %5, align 8
  %6 = load ptr, ptr %4, align 8
  %7 = load ptr, ptr %5, align 8
  %8 = call noundef zeroext i1 @_ZN5draco13DecoderBuffer4PeekIjEEbPT_(ptr noundef nonnull align 8 dereferenceable(52) %6, ptr noundef %7)
  br i1 %8, label %10, label %9

9:                                                ; preds = %2
  store i1 false, ptr %3, align 1
  br label %14

10:                                               ; preds = %2
  %11 = getelementptr inbounds %"class.draco::DecoderBuffer", ptr %6, i32 0, i32 2
  %12 = load i64, ptr %11, align 8
  %13 = add i64 %12, 4
  store i64 %13, ptr %11, align 8
  store i1 true, ptr %3, align 1
  br label %14

14:                                               ; preds = %10, %9
  %15 = load i1, ptr %3, align 1
  ret i1 %15
}

; Function Attrs: mustprogress uwtable
define void @_ZN5draco22AdaptiveRAnsBitDecoder5ClearEv(ptr noundef nonnull align 8 dereferenceable(24) %0) #4 align 2 {
  %2 = alloca ptr, align 8
  store ptr %0, ptr %2, align 8
  %3 = load ptr, ptr %2, align 8
  %4 = getelementptr inbounds %"class.draco::AdaptiveRAnsBitDecoder", ptr %3, i32 0, i32 0
  %5 = call noundef i32 @_ZN5dracoL12ans_read_endEPNS_10AnsDecoderE(ptr noundef %4)
  %6 = getelementptr inbounds %"class.draco::AdaptiveRAnsBitDecoder", ptr %3, i32 0, i32 1
  store double 5.000000e-01, ptr %6, align 8
  ret void
}

; Function Attrs: mustprogress uwtable
define noundef zeroext i1 @_ZN5draco22AdaptiveRAnsBitDecoder13StartDecodingEPNS_13DecoderBufferE(ptr noundef nonnull align 8 dereferenceable(24) %0, ptr noundef %1) #4 align 2 {
  %3 = alloca i1, align 1
  %4 = alloca ptr, align 8
  %5 = alloca ptr, align 8
  %6 = alloca i32, align 4
  store ptr %0, ptr %4, align 8
  store ptr %1, ptr %5, align 8
  %7 = load ptr, ptr %4, align 8
  call void @_ZN5draco22AdaptiveRAnsBitDecoder5ClearEv(ptr noundef nonnull align 8 dereferenceable(24) %7)
  %8 = load ptr, ptr %5, align 8
  %9 = call noundef zeroext i1 @_ZN5draco13DecoderBuffer6DecodeIjEEbPT_(ptr noundef nonnull align 8 dereferenceable(52) %8, ptr noundef %6)
  br i1 %9, label %11, label %10

10:                                               ; preds = %2
  store i1 false, ptr %3, align 1
  br label %30

11:                                               ; preds = %2
  %12 = load i32, ptr %6, align 4
  %13 = zext i32 %12 to i64
  %14 = load ptr, ptr %5, align 8
  %15 = call noundef i64 @_ZNK5draco13DecoderBuffer14remaining_sizeEv(ptr noundef nonnull align 8 dereferenceable(52) %14)
  %16 = icmp sgt i64 %13, %15
  br i1 %16, label %17, label %18

17:                                               ; preds = %11
  store i1 false, ptr %3, align 1
  br label %30

18:                                               ; preds = %11
  %19 = getelementptr inbounds %"class.draco::AdaptiveRAnsBitDecoder", ptr %7, i32 0, i32 0
  %20 = load ptr, ptr %5, align 8
  %21 = call noundef ptr @_ZNK5draco13DecoderBuffer9data_headEv(ptr noundef nonnull align 8 dereferenceable(52) %20)
  %22 = load i32, ptr %6, align 4
  %23 = call noundef i32 @_ZN5dracoL13ans_read_initEPNS_10AnsDecoderEPKhi(ptr noundef %19, ptr noundef %21, i32 noundef %22)
  %24 = icmp ne i32 %23, 0
  br i1 %24, label %25, label %26

25:                                               ; preds = %18
  store i1 false, ptr %3, align 1
  br label %30

26:                                               ; preds = %18
  %27 = load ptr, ptr %5, align 8
  %28 = load i32, ptr %6, align 4
  %29 = zext i32 %28 to i64
  call void @_ZN5draco13DecoderBuffer7AdvanceEl(ptr noundef nonnull align 8 dereferenceable(52) %27, i64 noundef %29)
  store i1 true, ptr %3, align 1
  br label %30

30:                                               ; preds = %26, %25, %17, %10
  %31 = load i1, ptr %3, align 1
  ret i1 %31
}