; Function Attrs: mustprogress nofree norecurse nosync nounwind willreturn memory(read, argmem: readwrite, inaccessiblemem: none) uwtable
define noundef zeroext i1 @_ZN5draco22AdaptiveRAnsBitDecoder13StartDecodingEPNS_13DecoderBufferE(ptr noundef nonnull writeonly align 8 captures(none) dereferenceable(24) initializes((16, 24)) %0, ptr noundef captures(none) %1) local_unnamed_addr #4 align 2 {
  %3 = getelementptr inbounds nuw i8, ptr %0, i64 16
  store double 5.000000e-01, ptr %3, align 8
  %4 = getelementptr inbounds nuw i8, ptr %1, i64 8
  %5 = load i64, ptr %4, align 8
  %6 = getelementptr inbounds nuw i8, ptr %1, i64 16
  %7 = load i64, ptr %6, align 8
  %8 = add i64 %7, 4
  %.not17 = icmp slt i64 %5, %8
  br i1 %.not17, label %_ZN5draco13DecoderBuffer6DecodeIjEEbPT_.exit, label %9

9:                                                ; preds = %2
  %10 = load ptr, ptr %1, align 8
  %11 = getelementptr inbounds i8, ptr %10, i64 %7
  %12 = load i32, ptr %11, align 1
  store i64 %8, ptr %6, align 8
  %13 = zext i32 %12 to i64
  %14 = sub nsw i64 %5, %8
  %15 = icmp slt i64 %14, %13
  br i1 %15, label %_ZN5draco13DecoderBuffer6DecodeIjEEbPT_.exit, label %16

16:                                               ; preds = %9
  %17 = getelementptr inbounds i8, ptr %10, i64 %8
  %18 = icmp slt i32 %12, 1
  br i1 %18, label %_ZN5draco13DecoderBuffer6DecodeIjEEbPT_.exit, label %19

19:                                               ; preds = %16
  store ptr %17, ptr %0, align 8
  %20 = add nsw i32 %12, -1
  %21 = zext nneg i32 %20 to i64
  %22 = getelementptr inbounds nuw i8, ptr %17, i64 %21
  %23 = load i8, ptr %22, align 1
  %24 = icmp ult i8 %23, 64
  br i1 %24, label %25, label %30

25:                                               ; preds = %19
  %26 = getelementptr inbounds nuw i8, ptr %0, i64 8
  store i32 %20, ptr %26, align 8
  %27 = load i8, ptr %22, align 1
  %28 = and i8 %27, 63
  %29 = zext nneg i8 %28 to i32
  br label %_ZN5dracoL13ans_read_initEPNS_10AnsDecoderEPKhi.exit.thread14

30:                                               ; preds = %19
  %31 = lshr i8 %23, 6
  switch i8 %31, label %_ZN5draco13DecoderBuffer6DecodeIjEEbPT_.exit [
    i8 1, label %32
    i8 2, label %44
  ]

32:                                               ; preds = %30
  %33 = icmp eq i32 %12, 1
  br i1 %33, label %_ZN5draco13DecoderBuffer6DecodeIjEEbPT_.exit, label %34

34:                                               ; preds = %32
  %35 = add nsw i32 %12, -2
  %36 = getelementptr inbounds nuw i8, ptr %0, i64 8
  store i32 %35, ptr %36, align 8
  %37 = getelementptr inbounds nuw i8, ptr %17, i64 %13
  %38 = getelementptr inbounds i8, ptr %37, i64 -2
  %.val.i = load i8, ptr %38, align 1
  %39 = getelementptr i8, ptr %37, i64 -1
  %.val29.i = load i8, ptr %39, align 1
  %40 = zext i8 %.val29.i to i32
  %41 = shl nuw nsw i32 %40, 8
  %42 = zext i8 %.val.i to i32
  %.masked30.i = and i32 %41, 16128
  %43 = or disjoint i32 %.masked30.i, %42
  br label %_ZN5dracoL13ans_read_initEPNS_10AnsDecoderEPKhi.exit.thread14

44:                                               ; preds = %30
  %45 = icmp samesign ult i32 %12, 3
  br i1 %45, label %_ZN5draco13DecoderBuffer6DecodeIjEEbPT_.exit, label %_ZN5dracoL13ans_read_initEPNS_10AnsDecoderEPKhi.exit

_ZN5dracoL13ans_read_initEPNS_10AnsDecoderEPKhi.exit.thread14: ; preds = %34, %25
  %.ph = phi i32 [ %29, %25 ], [ %43, %34 ]
  %46 = getelementptr inbounds nuw i8, ptr %0, i64 12
  %47 = add nuw nsw i32 %.ph, 4096
  store i32 %47, ptr %46, align 4
  br label %62

_ZN5dracoL13ans_read_initEPNS_10AnsDecoderEPKhi.exit: ; preds = %44
  %48 = add nsw i32 %12, -3
  %49 = getelementptr inbounds nuw i8, ptr %0, i64 8
  store i32 %48, ptr %49, align 8
  %50 = getelementptr inbounds nuw i8, ptr %17, i64 %13
  %51 = getelementptr inbounds i8, ptr %50, i64 -3
  %52 = getelementptr i8, ptr %50, i64 -2
  %53 = load i16, ptr %52, align 1
  %54 = zext i16 %53 to i32
  %55 = shl nuw nsw i32 %54, 8
  %56 = load i8, ptr %51, align 1
  %57 = zext i8 %56 to i32
  %.masked.i = and i32 %55, 4194048
  %58 = getelementptr inbounds nuw i8, ptr %0, i64 12
  %59 = or disjoint i32 %57, 4096
  %60 = add nuw nsw i32 %59, %.masked.i
  store i32 %60, ptr %58, align 4
  %61 = icmp samesign ult i32 %.masked.i, 1044480
  br i1 %61, label %62, label %_ZN5draco13DecoderBuffer6DecodeIjEEbPT_.exit

62:                                               ; preds = %_ZN5dracoL13ans_read_initEPNS_10AnsDecoderEPKhi.exit.thread14, %_ZN5dracoL13ans_read_initEPNS_10AnsDecoderEPKhi.exit
  %63 = load i64, ptr %6, align 8
  %64 = add nsw i64 %63, %13
  store i64 %64, ptr %6, align 8
  br label %_ZN5draco13DecoderBuffer6DecodeIjEEbPT_.exit

_ZN5draco13DecoderBuffer6DecodeIjEEbPT_.exit:     ; preds = %30, %44, %32, %16, %2, %_ZN5dracoL13ans_read_initEPNS_10AnsDecoderEPKhi.exit, %9, %62
  %.0 = phi i1 [ true, %62 ], [ false, %9 ], [ false, %_ZN5dracoL13ans_read_initEPNS_10AnsDecoderEPKhi.exit ], [ false, %2 ], [ false, %16 ], [ false, %32 ], [ false, %44 ], [ false, %30 ]
  ret i1 %.0
}